; Function Attrs: mustprogress ssp uwtable
define void @_ZNK6open3d4data7Dataset15CheckPathsExistERKSt6vectorINSt7__cxx1112basic_stringIcSt11char_traitsIcESaIcEEESaIS8_EE(ptr noundef nonnull readnone align 8 captures(none) dereferenceable(72) %0, ptr noundef nonnull readonly align 8 captures(none) dereferenceable(24) %1) local_unnamed_addr #1 align 2 {
  %3 = alloca i64, align 8
  %4 = alloca i64, align 8
  call void @llvm.lifetime.start.p0(i64 8, ptr nonnull %3) #28
  %5 = getelementptr inbounds nuw i8, ptr %1, i64 8
  %6 = load ptr, ptr %5, align 8, !tbaa !22
  %7 = load ptr, ptr %1, align 8, !tbaa !25
  %8 = ptrtoint ptr %6 to i64
  %9 = ptrtoint ptr %7 to i64
  %10 = sub i64 %8, %9
  %11 = ashr exact i64 %10, 5
  store i64 %11, ptr %3, align 8, !tbaa !14
  call void @llvm.lifetime.start.p0(i64 8, ptr nonnull %4) #28
  %.not910 = icmp eq ptr %7, %6
  br i1 %.not910, label %._crit_edge, label %.lr.ph

._crit_edge:                                      ; preds = %17, %2
  %.lcssa = phi i64 [ 0, %2 ], [ %18, %17 ]
  store i64 %.lcssa, ptr %4, align 8
  %.not = icmp eq i64 %.lcssa, %11
  br i1 %.not, label %21, label %20

.lr.ph:                                           ; preds = %2, %17
  %.sroa.06.011 = phi ptr [ %19, %17 ], [ %7, %2 ]
  %12 = phi i64 [ %18, %17 ], [ 0, %2 ]
  %13 = tail call noundef zeroext i1 @_ZN6open3d7utility10filesystem10FileExistsERKNSt7__cxx1112basic_stringIcSt11char_traitsIcESaIcEEE(ptr noundef nonnull align 8 dereferenceable(32) %.sroa.06.011)
  br i1 %13, label %14, label %16

14:                                               ; preds = %.lr.ph
  %15 = add i64 %12, 1
  br label %17

16:                                               ; preds = %.lr.ph
  tail call void @_ZN6open3d7utility6Logger11LogWarning_IJRKNSt7__cxx1112basic_stringIcSt11char_traitsIcESaIcEEEEEEvPKciSC_SC_DpOT_(ptr noundef nonnull @.str.8, i32 noundef 54, ptr noundef nonnull @__PRETTY_FUNCTION__._ZNK6open3d4data7Dataset15CheckPathsExistERKSt6vectorINSt7__cxx1112basic_stringIcSt11char_traitsIcESaIcEEESaIS8_EE, ptr noundef nonnull @.str.10, ptr noundef nonnull align 8 dereferenceable(32) %.sroa.06.011)
  br label %17

17:                                               ; preds = %16, %14
  %18 = phi i64 [ %12, %16 ], [ %15, %14 ]
  %19 = getelementptr inbounds nuw i8, ptr %.sroa.06.011, i64 32
  %.not9 = icmp eq ptr %19, %6
  br i1 %.not9, label %._crit_edge, label %.lr.ph

20:                                               ; preds = %._crit_edge
  call void @_ZN6open3d7utility6Logger9LogError_IJRKmRmEEEvPKciS7_S7_DpOT_(ptr noundef nonnull @.str.8, i32 noundef 61, ptr noundef nonnull @__PRETTY_FUNCTION__._ZNK6open3d4data7Dataset15CheckPathsExistERKSt6vectorINSt7__cxx1112basic_stringIcSt11char_traitsIcESaIcEEESaIS8_EE, ptr noundef nonnull @.str.11, ptr noundef nonnull align 8 dereferenceable(8) %3, ptr noundef nonnull align 8 dereferenceable(8) %4) #30
  unreachable

21:                                               ; preds = %._crit_edge
  call void @llvm.lifetime.end.p0(i64 8, ptr nonnull %4) #28
  call void @llvm.lifetime.end.p0(i64 8, ptr nonnull %3) #28
  ret void
}